; Function Attrs: mustprogress nofree norecurse nosync nounwind willreturn memory(read, argmem: readwrite, inaccessiblemem: none) uwtable
define dso_local i32 @_ZNK4llvm12X86InstrInfo19isLoadFromStackSlotERKNS_12MachineInstrERiRj(ptr nonnull readnone align 8 captures(none) %0, ptr noundef nonnull readonly align 8 captures(none) dereferenceable(70) %1, ptr noundef nonnull writeonly align 4 captures(none) dereferenceable(4) %2, ptr noundef nonnull writeonly align 4 captures(none) dereferenceable(4) %3) unnamed_addr #5 align 2 {
  %5 = getelementptr inbounds nuw i8, ptr %1, i64 68
  %6 = load i16, ptr %5, align 4
  %7 = zext i16 %6 to i32
  %8 = tail call fastcc noundef zeroext i1 @_ZL17isFrameLoadOpcodeiRj(i32 noundef %7, ptr noundef nonnull align 4 dereferenceable(4) %3)
  br i1 %8, label %9, label %_ZNK4llvm12X86InstrInfo14isFrameOperandERKNS_12MachineInstrEjRi.exit.thread

9:                                                ; preds = %4
  %10 = getelementptr inbounds nuw i8, ptr %1, i64 32
  %11 = load ptr, ptr %10, align 8
  %12 = load i32, ptr %11, align 8
  %13 = and i32 %12, 1048320
  %14 = icmp eq i32 %13, 0
  br i1 %14, label %15, label %_ZNK4llvm12X86InstrInfo14isFrameOperandERKNS_12MachineInstrEjRi.exit.thread

15:                                               ; preds = %9
  %16 = getelementptr inbounds nuw i8, ptr %11, i64 32
  %17 = load i32, ptr %16, align 8
  %18 = and i32 %17, 255
  %19 = icmp eq i32 %18, 5
  br i1 %19, label %20, label %_ZNK4llvm12X86InstrInfo14isFrameOperandERKNS_12MachineInstrEjRi.exit.thread

20:                                               ; preds = %15
  %21 = getelementptr inbounds nuw i8, ptr %11, i64 64
  %22 = load i32, ptr %21, align 8
  %23 = and i32 %22, 255
  %24 = icmp eq i32 %23, 1
  br i1 %24, label %25, label %_ZNK4llvm12X86InstrInfo14isFrameOperandERKNS_12MachineInstrEjRi.exit.thread

25:                                               ; preds = %20
  %26 = getelementptr inbounds nuw i8, ptr %11, i64 96
  %27 = load i32, ptr %26, align 8
  %28 = and i32 %27, 255
  %29 = icmp eq i32 %28, 0
  br i1 %29, label %30, label %_ZNK4llvm12X86InstrInfo14isFrameOperandERKNS_12MachineInstrEjRi.exit.thread

30:                                               ; preds = %25
  %31 = getelementptr inbounds nuw i8, ptr %11, i64 128
  %32 = load i32, ptr %31, align 8
  %33 = and i32 %32, 255
  %34 = icmp eq i32 %33, 1
  br i1 %34, label %35, label %_ZNK4llvm12X86InstrInfo14isFrameOperandERKNS_12MachineInstrEjRi.exit.thread

35:                                               ; preds = %30
  %36 = getelementptr inbounds nuw i8, ptr %11, i64 80
  %37 = load i64, ptr %36, align 8
  %38 = icmp eq i64 %37, 1
  br i1 %38, label %39, label %_ZNK4llvm12X86InstrInfo14isFrameOperandERKNS_12MachineInstrEjRi.exit.thread

39:                                               ; preds = %35
  %40 = getelementptr inbounds nuw i8, ptr %11, i64 100
  %41 = load i32, ptr %40, align 4
  %42 = icmp eq i32 %41, 0
  br i1 %42, label %43, label %_ZNK4llvm12X86InstrInfo14isFrameOperandERKNS_12MachineInstrEjRi.exit.thread

43:                                               ; preds = %39
  %44 = getelementptr inbounds nuw i8, ptr %11, i64 144
  %45 = load i64, ptr %44, align 8
  %46 = icmp eq i64 %45, 0
  br i1 %46, label %47, label %_ZNK4llvm12X86InstrInfo14isFrameOperandERKNS_12MachineInstrEjRi.exit.thread

47:                                               ; preds = %43
  %48 = getelementptr inbounds nuw i8, ptr %11, i64 48
  %49 = load i32, ptr %48, align 8
  store i32 %49, ptr %2, align 4
  %50 = load ptr, ptr %10, align 8
  %51 = getelementptr inbounds nuw i8, ptr %50, i64 4
  %52 = load i32, ptr %51, align 4
  br label %_ZNK4llvm12X86InstrInfo14isFrameOperandERKNS_12MachineInstrEjRi.exit.thread

_ZNK4llvm12X86InstrInfo14isFrameOperandERKNS_12MachineInstrEjRi.exit.thread: ; preds = %43, %15, %20, %25, %30, %35, %39, %4, %9, %47
  %.sroa.0.0 = phi i32 [ %52, %47 ], [ 0, %9 ], [ 0, %4 ], [ 0, %39 ], [ 0, %35 ], [ 0, %30 ], [ 0, %25 ], [ 0, %20 ], [ 0, %15 ], [ 0, %43 ]
  ret i32 %.sroa.0.0
}